target datalayout = "e-m:e-p270:32:32-p271:32:32-p272:64:64-i64:64-i128:128-f80:128-n8:16:32:64-S128"
target triple = "x86_64-pc-linux-gnu"

%struct.Agobj_s = type { %struct.Agtag_s, ptr }
%struct.Agtag_s = type { i32, i64 }

; Function Attrs: nounwind uwtable
define internal i32 @agseqasc(ptr noundef %0, ptr noundef %1) #0 {
  %3 = alloca i32, align 4
  %4 = alloca ptr, align 8
  %5 = alloca ptr, align 8
  %6 = alloca ptr, align 8
  %7 = alloca ptr, align 8
  %8 = alloca ptr, align 8
  %9 = alloca ptr, align 8
  %10 = alloca i32, align 4
  store ptr %0, ptr %4, align 8, !tbaa !100
  store ptr %1, ptr %5, align 8, !tbaa !100
  call void @llvm.lifetime.start.p0(i64 8, ptr %6) #9
  %11 = load ptr, ptr %4, align 8, !tbaa !100
  store ptr %11, ptr %6, align 8, !tbaa !135
  call void @llvm.lifetime.start.p0(i64 8, ptr %7) #9
  %12 = load ptr, ptr %5, align 8, !tbaa !100
  store ptr %12, ptr %7, align 8, !tbaa !135
  call void @llvm.lifetime.start.p0(i64 8, ptr %8) #9
  %13 = load ptr, ptr %6, align 8, !tbaa !135
  %14 = load ptr, ptr %13, align 8, !tbaa !96
  store ptr %14, ptr %8, align 8, !tbaa !96
  call void @llvm.lifetime.start.p0(i64 8, ptr %9) #9
  %15 = load ptr, ptr %7, align 8, !tbaa !135
  %16 = load ptr, ptr %15, align 8, !tbaa !96
  store ptr %16, ptr %9, align 8, !tbaa !96
  %17 = load ptr, ptr %8, align 8, !tbaa !96
  %18 = getelementptr inbounds nuw %struct.Agobj_s, ptr %17, i32 0, i32 0
  %19 = load i32, ptr %18, align 8
  %20 = lshr i32 %19, 4
  %21 = load ptr, ptr %9, align 8, !tbaa !96
  %22 = getelementptr inbounds nuw %struct.Agobj_s, ptr %21, i32 0, i32 0
  %23 = load i32, ptr %22, align 8
  %24 = lshr i32 %23, 4
  %25 = icmp slt i32 %20, %24
  br i1 %25, label %26, label %27

26:                                               ; preds = %2
  store i32 -1, ptr %3, align 4
  store i32 1, ptr %10, align 4
  br label %39

27:                                               ; preds = %2
  %28 = load ptr, ptr %8, align 8, !tbaa !96
  %29 = getelementptr inbounds nuw %struct.Agobj_s, ptr %28, i32 0, i32 0
  %30 = load i32, ptr %29, align 8
  %31 = lshr i32 %30, 4
  %32 = load ptr, ptr %9, align 8, !tbaa !96
  %33 = getelementptr inbounds nuw %struct.Agobj_s, ptr %32, i32 0, i32 0
  %34 = load i32, ptr %33, align 8
  %35 = lshr i32 %34, 4
  %36 = icmp sgt i32 %31, %35
  br i1 %36, label %37, label %38

37:                                               ; preds = %27
  store i32 1, ptr %3, align 4
  store i32 1, ptr %10, align 4
  br label %39

38:                                               ; preds = %27
  store i32 0, ptr %3, align 4
  store i32 1, ptr %10, align 4
  br label %39

39:                                               ; preds = %38, %37, %26
  call void @llvm.lifetime.end.p0(i64 8, ptr %9) #9
  call void @llvm.lifetime.end.p0(i64 8, ptr %8) #9
  call void @llvm.lifetime.end.p0(i64 8, ptr %7) #9
  call void @llvm.lifetime.end.p0(i64 8, ptr %6) #9
  %40 = load i32, ptr %3, align 4
  ret i32 %40
}