; Function Attrs: mustprogress nofree norecurse nosync nounwind willreturn memory(read, inaccessiblemem: none) uwtable
define internal range(i32 -1, 2) i32 @agseqasc(ptr noundef readonly captures(none) %0, ptr noundef readonly captures(none) %1) #13 {
  %3 = load ptr, ptr %0, align 8, !tbaa !119
  %4 = load ptr, ptr %1, align 8, !tbaa !119
  %5 = load i32, ptr %3, align 8
  %6 = lshr i32 %5, 4
  %7 = load i32, ptr %4, align 8
  %8 = lshr i32 %7, 4
  %.0 = tail call i32 @llvm.ucmp.i32.i32(i32 %6, i32 %8)
  ret i32 %.0
}